target datalayout = "e-m:e-p270:32:32-p271:32:32-p272:64:64-i64:64-i128:128-f80:128-n8:16:32:64-S128"
target triple = "x86_64-pc-linux-gnu"

%struct._object = type { %union.anon, ptr }
%union.anon = type { i64 }
%struct.BZ2Compressor = type { %struct._object, %struct.bz_stream, i32, ptr }
%struct.bz_stream = type { ptr, i32, i32, i32, ptr, i32, i32, i32, ptr, ptr, ptr, ptr }
%struct.PyVarObject = type { %struct._object, i64 }
%struct.anon = type { i32, i32 }
%struct._BlocksOutputBuffer = type { ptr, i64, i64 }
%struct.PyListObject = type { %struct.PyVarObject, ptr, i64 }
%struct.PyBytesObject = type { %struct.PyVarObject, i64, [1 x i8] }

@BUFFER_BLOCK_SIZE = internal constant [17 x i64] [i64 32768, i64 65536, i64 262144, i64 1048576, i64 4194304, i64 8388608, i64 16777216, i64 16777216, i64 33554432, i64 33554432, i64 33554432, i64 33554432, i64 67108864, i64 67108864, i64 134217728, i64 134217728, i64 268435456], align 16

; Function Attrs: alwaysinline nounwind uwtable
define internal i32 @_Py_IsImmortal(ptr noundef %0) #4 {
  %2 = alloca ptr, align 8
  store ptr %0, ptr %2, align 8, !tbaa !3
  %3 = load ptr, ptr %2, align 8, !tbaa !3
  %4 = getelementptr inbounds nuw %struct._object, ptr %3, i32 0, i32 0
  %5 = getelementptr inbounds nuw %struct.anon, ptr %4, i32 0, i32 0
  %6 = load i32, ptr %5, align 8, !tbaa !33
  %7 = icmp slt i32 %6, 0
  %8 = zext i1 %7 to i32
  ret i32 %8
}

; Function Attrs: inlinehint nounwind uwtable
define internal ptr @PyBytes_AS_STRING(ptr noundef %0) #3 {
  %2 = alloca ptr, align 8
  store ptr %0, ptr %2, align 8, !tbaa !3
  %3 = load ptr, ptr %2, align 8, !tbaa !3
  %4 = getelementptr inbounds nuw %struct.PyBytesObject, ptr %3, i32 0, i32 2
  %5 = getelementptr inbounds [1 x i8], ptr %4, i64 0, i64 0
  ret ptr %5
}

; Function Attrs: inlinehint nounwind uwtable
define internal void @PyList_SET_ITEM(ptr noundef %0, i64 noundef %1, ptr noundef %2) #3 {
  %4 = alloca ptr, align 8
  %5 = alloca i64, align 8
  %6 = alloca ptr, align 8
  %7 = alloca ptr, align 8
  store ptr %0, ptr %4, align 8, !tbaa !3
  store i64 %1, ptr %5, align 8, !tbaa !43
  store ptr %2, ptr %6, align 8, !tbaa !3
  call void @llvm.lifetime.start.p0(i64 8, ptr %7) #7
  %8 = load ptr, ptr %4, align 8, !tbaa !3
  store ptr %8, ptr %7, align 8, !tbaa !8
  %9 = load ptr, ptr %6, align 8, !tbaa !3
  %10 = load ptr, ptr %7, align 8, !tbaa !8
  %11 = getelementptr inbounds nuw %struct.PyListObject, ptr %10, i32 0, i32 1
  %12 = load ptr, ptr %11, align 8, !tbaa !55
  %13 = load i64, ptr %5, align 8, !tbaa !43
  %14 = getelementptr ptr, ptr %12, i64 %13
  store ptr %9, ptr %14, align 8, !tbaa !3
  call void @llvm.lifetime.end.p0(i64 8, ptr %7) #7
  ret void
}

; Function Attrs: alwaysinline nounwind uwtable
define internal void @Py_DECREF(ptr noundef %0) #4 {
  %2 = alloca ptr, align 8
  store ptr %0, ptr %2, align 8, !tbaa !3
  %3 = load ptr, ptr %2, align 8, !tbaa !3
  %4 = call i32 @_Py_IsImmortal(ptr noundef %3)
  %5 = icmp ne i32 %4, 0
  br i1 %5, label %6, label %7

6:                                                ; preds = %1
  br label %16

7:                                                ; preds = %1
  %8 = load ptr, ptr %2, align 8, !tbaa !3
  %9 = getelementptr inbounds nuw %struct._object, ptr %8, i32 0, i32 0
  %10 = getelementptr inbounds nuw %struct.anon, ptr %9, i32 0, i32 0
  %11 = load i32, ptr %10, align 8, !tbaa !33
  %12 = add i32 %11, -1
  store i32 %12, ptr %10, align 8, !tbaa !33
  %13 = icmp eq i32 %12, 0
  br i1 %13, label %14, label %16

14:                                               ; preds = %7
  %15 = load ptr, ptr %2, align 8, !tbaa !3
  call void @_Py_Dealloc(ptr noundef %15)
  br label %16

16:                                               ; preds = %6, %14, %7
  ret void
}

; Function Attrs: inlinehint nounwind uwtable
define internal void @_BlocksOutputBuffer_OnError(ptr noundef %0) #3 {
  %2 = alloca ptr, align 8
  %3 = alloca ptr, align 8
  %4 = alloca ptr, align 8
  store ptr %0, ptr %2, align 8, !tbaa !8
  br label %5

5:                                                ; preds = %1
  call void @llvm.lifetime.start.p0(i64 8, ptr %3) #7
  %6 = load ptr, ptr %2, align 8, !tbaa !8
  %7 = getelementptr inbounds nuw %struct._BlocksOutputBuffer, ptr %6, i32 0, i32 0
  store ptr %7, ptr %3, align 8, !tbaa !59
  call void @llvm.lifetime.start.p0(i64 8, ptr %4) #7
  %8 = load ptr, ptr %3, align 8, !tbaa !59
  %9 = load ptr, ptr %8, align 8, !tbaa !3
  store ptr %9, ptr %4, align 8, !tbaa !3
  %10 = load ptr, ptr %4, align 8, !tbaa !3
  %11 = icmp ne ptr %10, null
  br i1 %11, label %12, label %15

12:                                               ; preds = %5
  %13 = load ptr, ptr %3, align 8, !tbaa !59
  store ptr null, ptr %13, align 8, !tbaa !3
  %14 = load ptr, ptr %4, align 8, !tbaa !3
  call void @Py_DECREF(ptr noundef %14)
  br label %15

15:                                               ; preds = %12, %5
  call void @llvm.lifetime.end.p0(i64 8, ptr %4) #7
  call void @llvm.lifetime.end.p0(i64 8, ptr %3) #7
  br label %16

16:                                               ; preds = %15
  ret void
}

; Function Attrs: inlinehint nounwind uwtable
define internal i64 @_BlocksOutputBuffer_InitAndGrow(ptr noundef %0, i64 noundef %1, ptr noundef %2) #3 {
  %4 = alloca i64, align 8
  %5 = alloca ptr, align 8
  %6 = alloca i64, align 8
  %7 = alloca ptr, align 8
  %8 = alloca ptr, align 8
  %9 = alloca i64, align 8
  %10 = alloca i32, align 4
  store ptr %0, ptr %5, align 8, !tbaa !8
  store i64 %1, ptr %6, align 8, !tbaa !43
  store ptr %2, ptr %7, align 8, !tbaa !8
  call void @llvm.lifetime.start.p0(i64 8, ptr %8) #7
  call void @llvm.lifetime.start.p0(i64 8, ptr %9) #7
  %11 = load i64, ptr %6, align 8, !tbaa !43
  %12 = icmp sle i64 0, %11
  br i1 %12, label %13, label %19

13:                                               ; preds = %3
  %14 = load i64, ptr %6, align 8, !tbaa !43
  %15 = load i64, ptr @BUFFER_BLOCK_SIZE, align 16, !tbaa !43
  %16 = icmp slt i64 %14, %15
  br i1 %16, label %17, label %19

17:                                               ; preds = %13
  %18 = load i64, ptr %6, align 8, !tbaa !43
  store i64 %18, ptr %9, align 8, !tbaa !43
  br label %21

19:                                               ; preds = %13, %3
  %20 = load i64, ptr @BUFFER_BLOCK_SIZE, align 16, !tbaa !43
  store i64 %20, ptr %9, align 8, !tbaa !43
  br label %21

21:                                               ; preds = %19, %17
  %22 = load i64, ptr %9, align 8, !tbaa !43
  %23 = call ptr @PyBytes_FromStringAndSize(ptr noundef null, i64 noundef %22)
  store ptr %23, ptr %8, align 8, !tbaa !3
  %24 = load ptr, ptr %8, align 8, !tbaa !3
  %25 = icmp eq ptr %24, null
  br i1 %25, label %26, label %27

26:                                               ; preds = %21
  store i64 -1, ptr %4, align 8
  store i32 1, ptr %10, align 4
  br label %52

27:                                               ; preds = %21
  %28 = call ptr @PyList_New(i64 noundef 1)
  %29 = load ptr, ptr %5, align 8, !tbaa !8
  %30 = getelementptr inbounds nuw %struct._BlocksOutputBuffer, ptr %29, i32 0, i32 0
  store ptr %28, ptr %30, align 8, !tbaa !51
  %31 = load ptr, ptr %5, align 8, !tbaa !8
  %32 = getelementptr inbounds nuw %struct._BlocksOutputBuffer, ptr %31, i32 0, i32 0
  %33 = load ptr, ptr %32, align 8, !tbaa !51
  %34 = icmp eq ptr %33, null
  br i1 %34, label %35, label %37

35:                                               ; preds = %27
  %36 = load ptr, ptr %8, align 8, !tbaa !3
  call void @Py_DECREF(ptr noundef %36)
  store i64 -1, ptr %4, align 8
  store i32 1, ptr %10, align 4
  br label %52

37:                                               ; preds = %27
  %38 = load ptr, ptr %5, align 8, !tbaa !8
  %39 = getelementptr inbounds nuw %struct._BlocksOutputBuffer, ptr %38, i32 0, i32 0
  %40 = load ptr, ptr %39, align 8, !tbaa !51
  %41 = load ptr, ptr %8, align 8, !tbaa !3
  call void @PyList_SET_ITEM(ptr noundef %40, i64 noundef 0, ptr noundef %41)
  %42 = load i64, ptr %9, align 8, !tbaa !43
  %43 = load ptr, ptr %5, align 8, !tbaa !8
  %44 = getelementptr inbounds nuw %struct._BlocksOutputBuffer, ptr %43, i32 0, i32 1
  store i64 %42, ptr %44, align 8, !tbaa !53
  %45 = load i64, ptr %6, align 8, !tbaa !43
  %46 = load ptr, ptr %5, align 8, !tbaa !8
  %47 = getelementptr inbounds nuw %struct._BlocksOutputBuffer, ptr %46, i32 0, i32 2
  store i64 %45, ptr %47, align 8, !tbaa !54
  %48 = load ptr, ptr %8, align 8, !tbaa !3
  %49 = call ptr @PyBytes_AS_STRING(ptr noundef %48)
  %50 = load ptr, ptr %7, align 8, !tbaa !8
  store ptr %49, ptr %50, align 8, !tbaa !8
  %51 = load i64, ptr %9, align 8, !tbaa !43
  store i64 %51, ptr %4, align 8
  store i32 1, ptr %10, align 4
  br label %52

52:                                               ; preds = %37, %35, %26
  call void @llvm.lifetime.end.p0(i64 8, ptr %9) #7
  call void @llvm.lifetime.end.p0(i64 8, ptr %8) #7
  %53 = load i64, ptr %4, align 8
  ret i64 %53
}

; Function Attrs: inlinehint nounwind uwtable
define internal void @OutputBuffer_OnError(ptr noundef %0) #3 {
  %2 = alloca ptr, align 8
  store ptr %0, ptr %2, align 8, !tbaa !8
  %3 = load ptr, ptr %2, align 8, !tbaa !8
  call void @_BlocksOutputBuffer_OnError(ptr noundef %3)
  ret void
}

; Function Attrs: inlinehint nounwind uwtable
define internal i64 @OutputBuffer_InitAndGrow(ptr noundef %0, i64 noundef %1, ptr noundef %2, ptr noundef %3) #3 {
  %5 = alloca ptr, align 8
  %6 = alloca i64, align 8
  %7 = alloca ptr, align 8
  %8 = alloca ptr, align 8
  %9 = alloca i64, align 8
  store ptr %0, ptr %5, align 8, !tbaa !8
  store i64 %1, ptr %6, align 8, !tbaa !43
  store ptr %2, ptr %7, align 8, !tbaa !47
  store ptr %3, ptr %8, align 8, !tbaa !49
  call void @llvm.lifetime.start.p0(i64 8, ptr %9) #7
  %10 = load ptr, ptr %5, align 8, !tbaa !8
  %11 = load i64, ptr %6, align 8, !tbaa !43
  %12 = load ptr, ptr %7, align 8, !tbaa !47
  %13 = call i64 @_BlocksOutputBuffer_InitAndGrow(ptr noundef %10, i64 noundef %11, ptr noundef %12)
  store i64 %13, ptr %9, align 8, !tbaa !43
  %14 = load i64, ptr %9, align 8, !tbaa !43
  %15 = trunc i64 %14 to i32
  %16 = load ptr, ptr %8, align 8, !tbaa !49
  store i32 %15, ptr %16, align 4, !tbaa !12
  %17 = load i64, ptr %9, align 8, !tbaa !43
  call void @llvm.lifetime.end.p0(i64 8, ptr %9) #7
  ret i64 %17
}

; Function Attrs: nounwind uwtable
define internal ptr @compress(ptr noundef %0, ptr noundef %1, i64 noundef %2, i32 noundef %3) #0 {
  %5 = alloca ptr, align 8
  %6 = alloca ptr, align 8
  %7 = alloca ptr, align 8
  %8 = alloca i64, align 8
  %9 = alloca i32, align 4
  %10 = alloca ptr, align 8
  %11 = alloca %struct._BlocksOutputBuffer, align 8
  %12 = alloca i32, align 4
  %13 = alloca i32, align 4
  %14 = alloca ptr, align 8
  store ptr %0, ptr %6, align 8, !tbaa !8
  store ptr %1, ptr %7, align 8, !tbaa !42
  store i64 %2, ptr %8, align 8, !tbaa !43
  store i32 %3, ptr %9, align 4, !tbaa !12
  call void @llvm.lifetime.start.p0(i64 8, ptr %10) #7
  call void @llvm.lifetime.start.p0(i64 24, ptr %11) #7
  call void @llvm.memset.p0.i64(ptr align 8 %11, i8 0, i64 24, i1 false)
  %15 = load ptr, ptr %6, align 8, !tbaa !8
  %16 = getelementptr inbounds nuw %struct.BZ2Compressor, ptr %15, i32 0, i32 1
  %17 = getelementptr inbounds nuw %struct.bz_stream, ptr %16, i32 0, i32 4
  %18 = load ptr, ptr %6, align 8, !tbaa !8
  %19 = getelementptr inbounds nuw %struct.BZ2Compressor, ptr %18, i32 0, i32 1
  %20 = getelementptr inbounds nuw %struct.bz_stream, ptr %19, i32 0, i32 5
  %21 = call i64 @OutputBuffer_InitAndGrow(ptr noundef %11, i64 noundef -1, ptr noundef %17, ptr noundef %20)
  %22 = icmp slt i64 %21, 0
  br i1 %22, label %23, label %24

23:                                               ; preds = %4
  br label %120

24:                                               ; preds = %4
  %25 = load ptr, ptr %7, align 8, !tbaa !42
  %26 = load ptr, ptr %6, align 8, !tbaa !8
  %27 = getelementptr inbounds nuw %struct.BZ2Compressor, ptr %26, i32 0, i32 1
  %28 = getelementptr inbounds nuw %struct.bz_stream, ptr %27, i32 0, i32 0
  store ptr %25, ptr %28, align 8, !tbaa !44
  %29 = load ptr, ptr %6, align 8, !tbaa !8
  %30 = getelementptr inbounds nuw %struct.BZ2Compressor, ptr %29, i32 0, i32 1
  %31 = getelementptr inbounds nuw %struct.bz_stream, ptr %30, i32 0, i32 1
  store i32 0, ptr %31, align 8, !tbaa !45
  br label %32

32:                                               ; preds = %108, %24
  call void @llvm.lifetime.start.p0(i64 4, ptr %12) #7
  %33 = load ptr, ptr %6, align 8, !tbaa !8
  %34 = getelementptr inbounds nuw %struct.BZ2Compressor, ptr %33, i32 0, i32 1
  %35 = getelementptr inbounds nuw %struct.bz_stream, ptr %34, i32 0, i32 1
  %36 = load i32, ptr %35, align 8, !tbaa !45
  %37 = icmp eq i32 %36, 0
  br i1 %37, label %38, label %60

38:                                               ; preds = %32
  %39 = load i64, ptr %8, align 8, !tbaa !43
  %40 = icmp ugt i64 %39, 0
  br i1 %40, label %41, label %60

41:                                               ; preds = %38
  %42 = load i64, ptr %8, align 8, !tbaa !43
  %43 = icmp ugt i64 %42, 4294967295
  br i1 %43, label %44, label %45

44:                                               ; preds = %41
  br label %47

45:                                               ; preds = %41
  %46 = load i64, ptr %8, align 8, !tbaa !43
  br label %47

47:                                               ; preds = %45, %44
  %48 = phi i64 [ 4294967295, %44 ], [ %46, %45 ]
  %49 = trunc i64 %48 to i32
  %50 = load ptr, ptr %6, align 8, !tbaa !8
  %51 = getelementptr inbounds nuw %struct.BZ2Compressor, ptr %50, i32 0, i32 1
  %52 = getelementptr inbounds nuw %struct.bz_stream, ptr %51, i32 0, i32 1
  store i32 %49, ptr %52, align 8, !tbaa !45
  %53 = load ptr, ptr %6, align 8, !tbaa !8
  %54 = getelementptr inbounds nuw %struct.BZ2Compressor, ptr %53, i32 0, i32 1
  %55 = getelementptr inbounds nuw %struct.bz_stream, ptr %54, i32 0, i32 1
  %56 = load i32, ptr %55, align 8, !tbaa !45
  %57 = zext i32 %56 to i64
  %58 = load i64, ptr %8, align 8, !tbaa !43
  %59 = sub i64 %58, %57
  store i64 %59, ptr %8, align 8, !tbaa !43
  br label %60

60:                                               ; preds = %47, %38, %32
  %61 = load i32, ptr %9, align 4, !tbaa !12
  %62 = icmp eq i32 %61, 0
  br i1 %62, label %63, label %70

63:                                               ; preds = %60
  %64 = load ptr, ptr %6, align 8, !tbaa !8
  %65 = getelementptr inbounds nuw %struct.BZ2Compressor, ptr %64, i32 0, i32 1
  %66 = getelementptr inbounds nuw %struct.bz_stream, ptr %65, i32 0, i32 1
  %67 = load i32, ptr %66, align 8, !tbaa !45
  %68 = icmp eq i32 %67, 0
  br i1 %68, label %69, label %70

69:                                               ; preds = %63
  store i32 3, ptr %13, align 4
  br label %106

70:                                               ; preds = %63, %60
  %71 = load ptr, ptr %6, align 8, !tbaa !8
  %72 = getelementptr inbounds nuw %struct.BZ2Compressor, ptr %71, i32 0, i32 1
  %73 = getelementptr inbounds nuw %struct.bz_stream, ptr %72, i32 0, i32 5
  %74 = load i32, ptr %73, align 8, !tbaa !46
  %75 = icmp eq i32 %74, 0
  br i1 %75, label %76, label %87

76:                                               ; preds = %70
  %77 = load ptr, ptr %6, align 8, !tbaa !8
  %78 = getelementptr inbounds nuw %struct.BZ2Compressor, ptr %77, i32 0, i32 1
  %79 = getelementptr inbounds nuw %struct.bz_stream, ptr %78, i32 0, i32 4
  %80 = load ptr, ptr %6, align 8, !tbaa !8
  %81 = getelementptr inbounds nuw %struct.BZ2Compressor, ptr %80, i32 0, i32 1
  %82 = getelementptr inbounds nuw %struct.bz_stream, ptr %81, i32 0, i32 5
  %83 = call i64 @OutputBuffer_Grow(ptr noundef %11, ptr noundef %79, ptr noundef %82)
  %84 = icmp slt i64 %83, 0
  br i1 %84, label %85, label %86

85:                                               ; preds = %76
  store i32 2, ptr %13, align 4
  br label %106

86:                                               ; preds = %76
  br label %87

87:                                               ; preds = %86, %70
  call void @llvm.lifetime.start.p0(i64 8, ptr %14) #7
  %88 = call ptr @PyEval_SaveThread()
  store ptr %88, ptr %14, align 8, !tbaa !37
  %89 = load ptr, ptr %6, align 8, !tbaa !8
  %90 = getelementptr inbounds nuw %struct.BZ2Compressor, ptr %89, i32 0, i32 1
  %91 = load i32, ptr %9, align 4, !tbaa !12
  %92 = call i32 @BZ2_bzCompress(ptr noundef %90, i32 noundef %91)
  store i32 %92, ptr %12, align 4, !tbaa !12
  %93 = load ptr, ptr %14, align 8, !tbaa !37
  call void @PyEval_RestoreThread(ptr noundef %93)
  call void @llvm.lifetime.end.p0(i64 8, ptr %14) #7
  %94 = load i32, ptr %12, align 4, !tbaa !12
  %95 = call i32 @catch_bz2_error(i32 noundef %94)
  %96 = icmp ne i32 %95, 0
  br i1 %96, label %97, label %98

97:                                               ; preds = %87
  store i32 2, ptr %13, align 4
  br label %106

98:                                               ; preds = %87
  %99 = load i32, ptr %9, align 4, !tbaa !12
  %100 = icmp eq i32 %99, 2
  br i1 %100, label %101, label %105

101:                                              ; preds = %98
  %102 = load i32, ptr %12, align 4, !tbaa !12
  %103 = icmp eq i32 %102, 4
  br i1 %103, label %104, label %105

104:                                              ; preds = %101
  store i32 3, ptr %13, align 4
  br label %106

105:                                              ; preds = %101, %98
  store i32 0, ptr %13, align 4
  br label %106

106:                                              ; preds = %97, %85, %105, %104, %69
  call void @llvm.lifetime.end.p0(i64 4, ptr %12) #7
  %107 = load i32, ptr %13, align 4
  switch i32 %107, label %121 [
    i32 0, label %108
    i32 3, label %109
    i32 2, label %120
  ]

108:                                              ; preds = %106
  br label %32

109:                                              ; preds = %106
  %110 = load ptr, ptr %6, align 8, !tbaa !8
  %111 = getelementptr inbounds nuw %struct.BZ2Compressor, ptr %110, i32 0, i32 1
  %112 = getelementptr inbounds nuw %struct.bz_stream, ptr %111, i32 0, i32 5
  %113 = load i32, ptr %112, align 8, !tbaa !46
  %114 = call ptr @OutputBuffer_Finish(ptr noundef %11, i32 noundef %113)
  store ptr %114, ptr %10, align 8, !tbaa !3
  %115 = load ptr, ptr %10, align 8, !tbaa !3
  %116 = icmp ne ptr %115, null
  br i1 %116, label %117, label %119

117:                                              ; preds = %109
  %118 = load ptr, ptr %10, align 8, !tbaa !3
  store ptr %118, ptr %5, align 8
  store i32 1, ptr %13, align 4
  br label %121

119:                                              ; preds = %109
  br label %120

120:                                              ; preds = %119, %106, %23
  call void @OutputBuffer_OnError(ptr noundef %11)
  store ptr null, ptr %5, align 8
  store i32 1, ptr %13, align 4
  br label %121

121:                                              ; preds = %120, %117, %106
  call void @llvm.lifetime.end.p0(i64 24, ptr %11) #7
  call void @llvm.lifetime.end.p0(i64 8, ptr %10) #7
  %122 = load ptr, ptr %5, align 8
  ret ptr %122
}