; Function Attrs: nounwind uwtable
define internal fastcc ptr @compress(ptr noundef initializes((48, 52)) %0, ptr noundef %1, i64 noundef %2, i32 noundef range(i32 0, 3) %3) unnamed_addr #0 {
  %5 = alloca %struct._BlocksOutputBuffer, align 8
  call void @llvm.lifetime.start.p0(i64 24, ptr nonnull %5) #7
  call void @llvm.memset.p0.i64(ptr noundef nonnull align 8 dereferenceable(24) %5, i8 0, i64 24, i1 false)
  %6 = getelementptr inbounds nuw i8, ptr %0, i64 16
  %7 = getelementptr inbounds nuw i8, ptr %0, i64 40
  %8 = getelementptr inbounds nuw i8, ptr %0, i64 48
  %9 = tail call ptr @PyBytes_FromStringAndSize(ptr noundef null, i64 noundef 32768) #7
  %10 = icmp eq ptr %9, null
  br i1 %10, label %OutputBuffer_InitAndGrow.exit.thread, label %11

11:                                               ; preds = %4
  %12 = tail call ptr @PyList_New(i64 noundef 1) #7
  store ptr %12, ptr %5, align 8, !tbaa !41
  %13 = icmp eq ptr %12, null
  br i1 %13, label %14, label %20

14:                                               ; preds = %11
  %15 = load i32, ptr %9, align 8, !tbaa !11
  %.not.i.i.i = icmp sgt i32 %15, -1
  br i1 %.not.i.i.i, label %16, label %OutputBuffer_InitAndGrow.exit.thread

16:                                               ; preds = %14
  %17 = add nsw i32 %15, -1
  store i32 %17, ptr %9, align 8, !tbaa !11
  %18 = icmp eq i32 %17, 0
  br i1 %18, label %19, label %OutputBuffer_InitAndGrow.exit.thread

19:                                               ; preds = %16
  tail call void @_Py_Dealloc(ptr noundef nonnull %9) #7
  br label %OutputBuffer_InitAndGrow.exit.thread

OutputBuffer_InitAndGrow.exit.thread:             ; preds = %4, %14, %16, %19
  store i32 -1, ptr %8, align 4, !tbaa !43
  br label %.thread38

20:                                               ; preds = %11
  %21 = getelementptr i8, ptr %12, i64 24
  %.val.i.i = load ptr, ptr %21, align 8, !tbaa !44
  store ptr %9, ptr %.val.i.i, align 8, !tbaa !30
  %22 = getelementptr inbounds nuw i8, ptr %5, i64 8
  store i64 32768, ptr %22, align 8, !tbaa !47
  %23 = getelementptr inbounds nuw i8, ptr %5, i64 16
  store i64 -1, ptr %23, align 8, !tbaa !48
  %24 = getelementptr inbounds nuw i8, ptr %9, i64 32
  store ptr %24, ptr %7, align 8, !tbaa !49
  store i32 32768, ptr %8, align 4, !tbaa !43
  store ptr %1, ptr %6, align 8, !tbaa !50
  %25 = getelementptr inbounds nuw i8, ptr %0, i64 24
  store i32 0, ptr %25, align 8, !tbaa !51
  switch i32 %3, label %.split.split.us [
    i32 0, label %.split.us.split.us
    i32 2, label %.split.split
  ]

.split.us.split.us:                               ; preds = %20, %40
  %.031.us.us = phi i64 [ %.1.us.us49, %40 ], [ %2, %20 ]
  %26 = load i32, ptr %25, align 8, !tbaa !51
  %27 = icmp eq i32 %26, 0
  %28 = icmp ne i64 %.031.us.us, 0
  %or.cond.us.us = select i1 %27, i1 %28, i1 false
  br i1 %or.cond.us.us, label %.thread, label %32

.thread:                                          ; preds = %.split.us.split.us
  %29 = tail call i64 @llvm.umin.i64(i64 %.031.us.us, i64 4294967295)
  %30 = trunc nuw i64 %29 to i32
  store i32 %30, ptr %25, align 8, !tbaa !51
  %31 = sub i64 %.031.us.us, %29
  br label %34

32:                                               ; preds = %.split.us.split.us
  %33 = icmp eq i32 %26, 0
  br i1 %33, label %select.unfold, label %34

34:                                               ; preds = %.thread, %32
  %.1.us.us49 = phi i64 [ %31, %.thread ], [ %.031.us.us, %32 ]
  %35 = load i32, ptr %8, align 8, !tbaa !52
  %36 = icmp eq i32 %35, 0
  br i1 %36, label %37, label %40

37:                                               ; preds = %34
  %38 = call fastcc i64 @OutputBuffer_Grow(ptr noundef %5, ptr noundef nonnull %7, ptr noundef nonnull %8)
  %39 = icmp slt i64 %38, 0
  br i1 %39, label %.thread38, label %40

40:                                               ; preds = %37, %34
  %41 = tail call ptr @PyEval_SaveThread() #7
  %42 = tail call i32 @BZ2_bzCompress(ptr noundef nonnull %6, i32 noundef 0) #7
  tail call void @PyEval_RestoreThread(ptr noundef %41) #7
  %43 = tail call fastcc i32 @catch_bz2_error(i32 noundef %42)
  %.not.us.us = icmp eq i32 %43, 0
  br i1 %.not.us.us, label %.split.us.split.us, label %.thread38

.split.split.us:                                  ; preds = %20, %57
  %.031.us40 = phi i64 [ %.1.us42, %57 ], [ %2, %20 ]
  %44 = load i32, ptr %25, align 8, !tbaa !51
  %45 = icmp eq i32 %44, 0
  %46 = icmp ne i64 %.031.us40, 0
  %or.cond.us41 = select i1 %45, i1 %46, i1 false
  br i1 %or.cond.us41, label %47, label %51

47:                                               ; preds = %.split.split.us
  %48 = tail call i64 @llvm.umin.i64(i64 %.031.us40, i64 4294967295)
  %49 = trunc nuw i64 %48 to i32
  store i32 %49, ptr %25, align 8, !tbaa !51
  %50 = sub i64 %.031.us40, %48
  br label %51

51:                                               ; preds = %47, %.split.split.us
  %.1.us42 = phi i64 [ %50, %47 ], [ %.031.us40, %.split.split.us ]
  %52 = load i32, ptr %8, align 8, !tbaa !52
  %53 = icmp eq i32 %52, 0
  br i1 %53, label %54, label %57

54:                                               ; preds = %51
  %55 = call fastcc i64 @OutputBuffer_Grow(ptr noundef %5, ptr noundef nonnull %7, ptr noundef nonnull %8)
  %56 = icmp slt i64 %55, 0
  br i1 %56, label %.thread38, label %57

57:                                               ; preds = %54, %51
  %58 = tail call ptr @PyEval_SaveThread() #7
  %59 = tail call i32 @BZ2_bzCompress(ptr noundef nonnull %6, i32 noundef %3) #7
  tail call void @PyEval_RestoreThread(ptr noundef %58) #7
  %60 = tail call fastcc i32 @catch_bz2_error(i32 noundef %59)
  %.not.us43 = icmp eq i32 %60, 0
  br i1 %.not.us43, label %.split.split.us, label %.thread38

.split.split:                                     ; preds = %20, %78
  %.031 = phi i64 [ %.1, %78 ], [ %2, %20 ]
  %61 = load i32, ptr %25, align 8, !tbaa !51
  %62 = icmp eq i32 %61, 0
  %63 = icmp ne i64 %.031, 0
  %or.cond = select i1 %62, i1 %63, i1 false
  br i1 %or.cond, label %64, label %68

64:                                               ; preds = %.split.split
  %65 = tail call i64 @llvm.umin.i64(i64 %.031, i64 4294967295)
  %66 = trunc nuw i64 %65 to i32
  store i32 %66, ptr %25, align 8, !tbaa !51
  %67 = sub i64 %.031, %65
  br label %68

68:                                               ; preds = %64, %.split.split
  %.1 = phi i64 [ %67, %64 ], [ %.031, %.split.split ]
  %69 = load i32, ptr %8, align 8, !tbaa !52
  %70 = icmp eq i32 %69, 0
  br i1 %70, label %71, label %74

71:                                               ; preds = %68
  %72 = call fastcc i64 @OutputBuffer_Grow(ptr noundef %5, ptr noundef nonnull %7, ptr noundef nonnull %8)
  %73 = icmp slt i64 %72, 0
  br i1 %73, label %.thread38, label %74

74:                                               ; preds = %71, %68
  %75 = tail call ptr @PyEval_SaveThread() #7
  %76 = tail call i32 @BZ2_bzCompress(ptr noundef nonnull %6, i32 noundef 2) #7
  tail call void @PyEval_RestoreThread(ptr noundef %75) #7
  %77 = tail call fastcc i32 @catch_bz2_error(i32 noundef %76)
  %.not = icmp eq i32 %77, 0
  br i1 %.not, label %78, label %.thread38

78:                                               ; preds = %74
  %79 = icmp eq i32 %76, 4
  br i1 %79, label %select.unfold, label %.split.split

select.unfold:                                    ; preds = %78, %32
  %80 = load i32, ptr %8, align 8, !tbaa !52
  %81 = call fastcc ptr @OutputBuffer_Finish(ptr noundef %5, i32 noundef %80)
  %.not33 = icmp eq ptr %81, null
  br i1 %.not33, label %.thread38, label %OutputBuffer_OnError.exit

.thread38:                                        ; preds = %74, %71, %37, %40, %54, %57, %OutputBuffer_InitAndGrow.exit.thread, %select.unfold
  %82 = load ptr, ptr %5, align 8, !tbaa !30
  %.not.i.i = icmp eq ptr %82, null
  br i1 %.not.i.i, label %OutputBuffer_OnError.exit, label %83

83:                                               ; preds = %.thread38
  %84 = load i32, ptr %82, align 8, !tbaa !11
  %.not.i.i.i34 = icmp sgt i32 %84, -1
  br i1 %.not.i.i.i34, label %85, label %OutputBuffer_OnError.exit

85:                                               ; preds = %83
  %86 = add nsw i32 %84, -1
  store i32 %86, ptr %82, align 8, !tbaa !11
  %87 = icmp eq i32 %86, 0
  br i1 %87, label %88, label %OutputBuffer_OnError.exit

88:                                               ; preds = %85
  tail call void @_Py_Dealloc(ptr noundef nonnull %82) #7
  br label %OutputBuffer_OnError.exit

OutputBuffer_OnError.exit:                        ; preds = %88, %85, %83, %.thread38, %select.unfold
  %.0 = phi ptr [ %81, %select.unfold ], [ null, %.thread38 ], [ null, %83 ], [ null, %85 ], [ null, %88 ]
  call void @llvm.lifetime.end.p0(i64 24, ptr nonnull %5) #7
  ret ptr %.0
}